; ModuleID = '24/838.c'
source_filename = "24/838.c"
target datalayout = "e-m:e-p270:32:32-p271:32:32-p272:64:64-i64:64-f80:128-n8:16:32:64-S128"
target triple = "x86_64-pc-linux-gnu"

@.str = private unnamed_addr constant [4 x i8] c"%s\0A\00", align 1

; Function Attrs: noinline nounwind uwtable
define dso_local i32 @main(i32 %0, i8** %1) #0 {
  %3 = alloca i32, align 4
  %4 = alloca i32, align 4
  %5 = alloca i8**, align 8
  %6 = alloca i32, align 4
  %7 = alloca i32, align 4
  %8 = alloca i32, align 4
  %9 = alloca [50 x i32], align 16
  %10 = alloca i32, align 4
  %11 = alloca i32, align 4
  %12 = alloca [1000 x i8], align 16
  %13 = alloca [50 x [20 x i8]], align 16
  store i32 0, i32* %3, align 4
  store i32 %0, i32* %4, align 4
  store i8** %1, i8*** %5, align 8
  %14 = getelementptr inbounds [1000 x i8], [1000 x i8]* %12, i64 0, i64 0
  %15 = call i32 (i8*, ...) bitcast (i32 (...)* @gets to i32 (i8*, ...)*)(i8* %14)
  %16 = getelementptr inbounds [1000 x i8], [1000 x i8]* %12, i64 0, i64 0
  %17 = call i64 @strlen(i8* %16) #3
  %18 = trunc i64 %17 to i32
  store i32 %18, i32* %6, align 4
  store i32 0, i32* %7, align 4
  br label %19

19:                                               ; preds = %40, %2
  %20 = load i32, i32* %7, align 4
  %21 = icmp slt i32 %20, 50
  br i1 %21, label %22, label %43

22:                                               ; preds = %19
  %23 = load i32, i32* %7, align 4
  %24 = sext i32 %23 to i64
  %25 = getelementptr inbounds [50 x i32], [50 x i32]* %9, i64 0, i64 %24
  store i32 0, i32* %25, align 4
  store i32 0, i32* %8, align 4
  br label %26

26:                                               ; preds = %36, %22
  %27 = load i32, i32* %8, align 4
  %28 = icmp slt i32 %27, 20
  br i1 %28, label %29, label %39

29:                                               ; preds = %26
  %30 = load i32, i32* %7, align 4
  %31 = sext i32 %30 to i64
  %32 = getelementptr inbounds [50 x [20 x i8]], [50 x [20 x i8]]* %13, i64 0, i64 %31
  %33 = load i32, i32* %8, align 4
  %34 = sext i32 %33 to i64
  %35 = getelementptr inbounds [20 x i8], [20 x i8]* %32, i64 0, i64 %34
  store i8 0, i8* %35, align 1
  br label %36

36:                                               ; preds = %29
  %37 = load i32, i32* %8, align 4
  %38 = add nsw i32 %37, 1
  store i32 %38, i32* %8, align 4
  br label %26

39:                                               ; preds = %26
  br label %40

40:                                               ; preds = %39
  %41 = load i32, i32* %7, align 4
  %42 = add nsw i32 %41, 1
  store i32 %42, i32* %7, align 4
  br label %19

43:                                               ; preds = %19
  store i32 0, i32* %8, align 4
  store i32 0, i32* %7, align 4
  br label %44

44:                                               ; preds = %78, %43
  %45 = load i32, i32* %7, align 4
  %46 = load i32, i32* %6, align 4
  %47 = icmp slt i32 %45, %46
  br i1 %47, label %48, label %81

48:                                               ; preds = %44
  %49 = load i32, i32* %7, align 4
  %50 = sext i32 %49 to i64
  %51 = getelementptr inbounds [1000 x i8], [1000 x i8]* %12, i64 0, i64 %50
  %52 = load i8, i8* %51, align 1
  %53 = sext i8 %52 to i32
  %54 = icmp ne i32 %53, 32
  br i1 %54, label %55, label %74

55:                                               ; preds = %48
  %56 = load i32, i32* %7, align 4
  %57 = sext i32 %56 to i64
  %58 = getelementptr inbounds [1000 x i8], [1000 x i8]* %12, i64 0, i64 %57
  %59 = load i8, i8* %58, align 1
  %60 = load i32, i32* %8, align 4
  %61 = sext i32 %60 to i64
  %62 = getelementptr inbounds [50 x [20 x i8]], [50 x [20 x i8]]* %13, i64 0, i64 %61
  %63 = load i32, i32* %8, align 4
  %64 = sext i32 %63 to i64
  %65 = getelementptr inbounds [50 x i32], [50 x i32]* %9, i64 0, i64 %64
  %66 = load i32, i32* %65, align 4
  %67 = sext i32 %66 to i64
  %68 = getelementptr inbounds [20 x i8], [20 x i8]* %62, i64 0, i64 %67
  store i8 %59, i8* %68, align 1
  %69 = load i32, i32* %8, align 4
  %70 = sext i32 %69 to i64
  %71 = getelementptr inbounds [50 x i32], [50 x i32]* %9, i64 0, i64 %70
  %72 = load i32, i32* %71, align 4
  %73 = add nsw i32 %72, 1
  store i32 %73, i32* %71, align 4
  br label %77

74:                                               ; preds = %48
  %75 = load i32, i32* %8, align 4
  %76 = add nsw i32 %75, 1
  store i32 %76, i32* %8, align 4
  br label %77

77:                                               ; preds = %74, %55
  br label %78

78:                                               ; preds = %77
  %79 = load i32, i32* %7, align 4
  %80 = add nsw i32 %79, 1
  store i32 %80, i32* %7, align 4
  br label %44

81:                                               ; preds = %44
  %82 = getelementptr inbounds [50 x i32], [50 x i32]* %9, i64 0, i64 0
  %83 = load i32, i32* %82, align 16
  store i32 %83, i32* %10, align 4
  %84 = getelementptr inbounds [50 x i32], [50 x i32]* %9, i64 0, i64 0
  %85 = load i32, i32* %84, align 16
  store i32 %85, i32* %11, align 4
  store i32 0, i32* %7, align 4
  br label %86

86:                                               ; preds = %115, %81
  %87 = load i32, i32* %7, align 4
  %88 = load i32, i32* %8, align 4
  %89 = icmp sle i32 %87, %88
  br i1 %89, label %90, label %118

90:                                               ; preds = %86
  %91 = load i32, i32* %10, align 4
  %92 = load i32, i32* %7, align 4
  %93 = sext i32 %92 to i64
  %94 = getelementptr inbounds [50 x i32], [50 x i32]* %9, i64 0, i64 %93
  %95 = load i32, i32* %94, align 4
  %96 = icmp slt i32 %91, %95
  br i1 %96, label %97, label %102

97:                                               ; preds = %90
  %98 = load i32, i32* %7, align 4
  %99 = sext i32 %98 to i64
  %100 = getelementptr inbounds [50 x i32], [50 x i32]* %9, i64 0, i64 %99
  %101 = load i32, i32* %100, align 4
  store i32 %101, i32* %10, align 4
  br label %102

102:                                              ; preds = %97, %90
  %103 = load i32, i32* %11, align 4
  %104 = load i32, i32* %7, align 4
  %105 = sext i32 %104 to i64
  %106 = getelementptr inbounds [50 x i32], [50 x i32]* %9, i64 0, i64 %105
  %107 = load i32, i32* %106, align 4
  %108 = icmp sgt i32 %103, %107
  br i1 %108, label %109, label %114

109:                                              ; preds = %102
  %110 = load i32, i32* %7, align 4
  %111 = sext i32 %110 to i64
  %112 = getelementptr inbounds [50 x i32], [50 x i32]* %9, i64 0, i64 %111
  %113 = load i32, i32* %112, align 4
  store i32 %113, i32* %11, align 4
  br label %114

114:                                              ; preds = %109, %102
  br label %115

115:                                              ; preds = %114
  %116 = load i32, i32* %7, align 4
  %117 = add nsw i32 %116, 1
  store i32 %117, i32* %7, align 4
  br label %86

118:                                              ; preds = %86
  store i32 0, i32* %7, align 4
  br label %119

119:                                              ; preds = %137, %118
  %120 = load i32, i32* %7, align 4
  %121 = load i32, i32* %8, align 4
  %122 = icmp sle i32 %120, %121
  br i1 %122, label %123, label %140

123:                                              ; preds = %119
  %124 = load i32, i32* %7, align 4
  %125 = sext i32 %124 to i64
  %126 = getelementptr inbounds [50 x i32], [50 x i32]* %9, i64 0, i64 %125
  %127 = load i32, i32* %126, align 4
  %128 = load i32, i32* %10, align 4
  %129 = icmp eq i32 %127, %128
  br i1 %129, label %130, label %136

130:                                              ; preds = %123
  %131 = load i32, i32* %7, align 4
  %132 = sext i32 %131 to i64
  %133 = getelementptr inbounds [50 x [20 x i8]], [50 x [20 x i8]]* %13, i64 0, i64 %132
  %134 = getelementptr inbounds [20 x i8], [20 x i8]* %133, i64 0, i64 0
  %135 = call i32 (i8*, ...) @printf(i8* getelementptr inbounds ([4 x i8], [4 x i8]* @.str, i64 0, i64 0), i8* %134)
  br label %140

136:                                              ; preds = %123
  br label %137

137:                                              ; preds = %136
  %138 = load i32, i32* %7, align 4
  %139 = add nsw i32 %138, 1
  store i32 %139, i32* %7, align 4
  br label %119

140:                                              ; preds = %130, %119
  store i32 0, i32* %7, align 4
  br label %141

141:                                              ; preds = %159, %140
  %142 = load i32, i32* %7, align 4
  %143 = load i32, i32* %8, align 4
  %144 = icmp sle i32 %142, %143
  br i1 %144, label %145, label %162

145:                                              ; preds = %141
  %146 = load i32, i32* %7, align 4
  %147 = sext i32 %146 to i64
  %148 = getelementptr inbounds [50 x i32], [50 x i32]* %9, i64 0, i64 %147
  %149 = load i32, i32* %148, align 4
  %150 = load i32, i32* %11, align 4
  %151 = icmp eq i32 %149, %150
  br i1 %151, label %152, label %158

152:                                              ; preds = %145
  %153 = load i32, i32* %7, align 4
  %154 = sext i32 %153 to i64
  %155 = getelementptr inbounds [50 x [20 x i8]], [50 x [20 x i8]]* %13, i64 0, i64 %154
  %156 = getelementptr inbounds [20 x i8], [20 x i8]* %155, i64 0, i64 0
  %157 = call i32 (i8*, ...) @printf(i8* getelementptr inbounds ([4 x i8], [4 x i8]* @.str, i64 0, i64 0), i8* %156)
  br label %162

158:                                              ; preds = %145
  br label %159

159:                                              ; preds = %158
  %160 = load i32, i32* %7, align 4
  %161 = add nsw i32 %160, 1
  store i32 %161, i32* %7, align 4
  br label %141

162:                                              ; preds = %152, %141
  ret i32 0
}

declare dso_local i32 @gets(...) #1

; Function Attrs: nounwind readonly
declare dso_local i64 @strlen(i8*) #2

declare dso_local i32 @printf(i8*, ...) #1


!llvm.module.flags = !{!0}
!llvm.ident = !{!1}

!0 = !{i32 1, !"wchar_size", i32 4}
!1 = !{!"clang version 10.0.0-4ubuntu1 "}
